ARM GAS  C:\Users\Klukk-TP\AppData\Local\Temp\ccRWjMht.s 			page 1


   1              		.syntax unified
   2              		.cpu cortex-m3
   3              		.fpu softvfp
   4              		.eabi_attribute 20, 1
   5              		.eabi_attribute 21, 1
   6              		.eabi_attribute 23, 3
   7              		.eabi_attribute 24, 1
   8              		.eabi_attribute 25, 1
   9              		.eabi_attribute 26, 1
  10              		.eabi_attribute 30, 1
  11              		.eabi_attribute 34, 1
  12              		.eabi_attribute 18, 4
  13              		.thumb
  14              		.syntax unified
  15              		.file	"main.c"
  16              		.text
  17              	.Ltext0:
  18              		.cfi_sections	.debug_frame
  19              		.section	.text.InterruptXL,"ax",%progbits
  20              		.align	2
  21              		.global	InterruptXL
  22              		.thumb
  23              		.thumb_func
  24              		.type	InterruptXL, %function
  25              	InterruptXL:
  26              	.LFB64:
  27              		.file 1 "main.c"
   1:main.c        ****  /* ========================================
   2:main.c        ****  *
   3:main.c        ****  * Copyright YOUR COMPANY, THE YEAR
   4:main.c        ****  * All Rights Reserved
   5:main.c        ****  * UNPUBLISHED, LICENSED SOFTWARE.
   6:main.c        ****  *
   7:main.c        ****  * CONFIDENTIAL AND PROPRIETARY INFORMATION
   8:main.c        ****  * WHICH IS THE PROPERTY OF your company.
   9:main.c        ****  *
  10:main.c        ****  * =======================================
  11:main.c        **** */
  12:main.c        **** #include "project.h"
  13:main.c        **** #include <stdlib.h>
  14:main.c        **** 
  15:main.c        **** 
  16:main.c        **** char datorecibido[10];
  17:main.c        **** int counta=0,countb=0,pwmx=0,pwmy=0,i=0,x=0,MXV=0,MYV=0,MXV0=0,MYV0=0,MXV00=0,MYV00=0,retx,rety;
  18:main.c        **** int KPX=0,KIX=0,rfaa,rfa,raa,rf,xxx;
  19:main.c        **** double ssx=0,ssax=0,ssaax=0,sex=0,seax=0,seaax=0,refsx=0,refsax=0,refsaax=0,refex=0,refeax=0,refeaa
  20:main.c        **** double retsx=0,retsax=0,retsaax=0,retex=0,reteax=0,reteaax=0;
  21:main.c        **** double ssy=0,ssay=0,ssaay=0,sey=0,seay=0,seaay=0,refsy=0,refsay=0,refsaay=0,refey=0,refeay=0,refeaa
  22:main.c        **** double retsy=0,retsay=0,retsaay=0,retey=0,reteay=0,reteaay=0;
  23:main.c        **** char datoenviado[20];
  24:main.c        **** char MX[2],MY[2],DX,DY;
  25:main.c        **** 
  26:main.c        **** 
  27:main.c        **** CY_ISR(InterruptRX)
  28:main.c        **** {datorecibido[i]=UART_GetChar();
  29:main.c        **** i++;
  30:main.c        **** if(i>=10){i=0;x=0;}}
ARM GAS  C:\Users\Klukk-TP\AppData\Local\Temp\ccRWjMht.s 			page 2


  31:main.c        **** 
  32:main.c        **** CY_ISR(InterruptXL)
  33:main.c        **** {counta++;}
  28              		.loc 1 33 0
  29              		.cfi_startproc
  30              		@ args = 0, pretend = 0, frame = 0
  31              		@ frame_needed = 0, uses_anonymous_args = 0
  32              		@ link register save eliminated.
  33              		.loc 1 33 0
  34 0000 024A     		ldr	r2, .L2
  35 0002 1368     		ldr	r3, [r2]
  36 0004 0133     		adds	r3, r3, #1
  37 0006 1360     		str	r3, [r2]
  38 0008 7047     		bx	lr
  39              	.L3:
  40 000a 00BF     		.align	2
  41              	.L2:
  42 000c 00000000 		.word	.LANCHOR0
  43              		.cfi_endproc
  44              	.LFE64:
  45              		.size	InterruptXL, .-InterruptXL
  46              		.section	.text.InterruptXP,"ax",%progbits
  47              		.align	2
  48              		.global	InterruptXP
  49              		.thumb
  50              		.thumb_func
  51              		.type	InterruptXP, %function
  52              	InterruptXP:
  53              	.LFB65:
  34:main.c        **** 
  35:main.c        **** CY_ISR(InterruptXP)
  36:main.c        **** {counta--;}
  54              		.loc 1 36 0
  55              		.cfi_startproc
  56              		@ args = 0, pretend = 0, frame = 0
  57              		@ frame_needed = 0, uses_anonymous_args = 0
  58              		@ link register save eliminated.
  59              		.loc 1 36 0
  60 0000 024A     		ldr	r2, .L5
  61 0002 1368     		ldr	r3, [r2]
  62 0004 013B     		subs	r3, r3, #1
  63 0006 1360     		str	r3, [r2]
  64 0008 7047     		bx	lr
  65              	.L6:
  66 000a 00BF     		.align	2
  67              	.L5:
  68 000c 00000000 		.word	.LANCHOR0
  69              		.cfi_endproc
  70              	.LFE65:
  71              		.size	InterruptXP, .-InterruptXP
  72              		.section	.text.InterruptYL,"ax",%progbits
  73              		.align	2
  74              		.global	InterruptYL
  75              		.thumb
  76              		.thumb_func
  77              		.type	InterruptYL, %function
  78              	InterruptYL:
ARM GAS  C:\Users\Klukk-TP\AppData\Local\Temp\ccRWjMht.s 			page 3


  79              	.LFB66:
  37:main.c        **** 
  38:main.c        **** CY_ISR(InterruptYL)
  39:main.c        **** {countb++;}
  80              		.loc 1 39 0
  81              		.cfi_startproc
  82              		@ args = 0, pretend = 0, frame = 0
  83              		@ frame_needed = 0, uses_anonymous_args = 0
  84              		@ link register save eliminated.
  85              		.loc 1 39 0
  86 0000 024A     		ldr	r2, .L8
  87 0002 5368     		ldr	r3, [r2, #4]
  88 0004 0133     		adds	r3, r3, #1
  89 0006 5360     		str	r3, [r2, #4]
  90 0008 7047     		bx	lr
  91              	.L9:
  92 000a 00BF     		.align	2
  93              	.L8:
  94 000c 00000000 		.word	.LANCHOR0
  95              		.cfi_endproc
  96              	.LFE66:
  97              		.size	InterruptYL, .-InterruptYL
  98              		.section	.text.InterruptYP,"ax",%progbits
  99              		.align	2
 100              		.global	InterruptYP
 101              		.thumb
 102              		.thumb_func
 103              		.type	InterruptYP, %function
 104              	InterruptYP:
 105              	.LFB67:
  40:main.c        **** 
  41:main.c        **** CY_ISR(InterruptYP)
  42:main.c        **** {countb--;}
 106              		.loc 1 42 0
 107              		.cfi_startproc
 108              		@ args = 0, pretend = 0, frame = 0
 109              		@ frame_needed = 0, uses_anonymous_args = 0
 110              		@ link register save eliminated.
 111              		.loc 1 42 0
 112 0000 024A     		ldr	r2, .L11
 113 0002 5368     		ldr	r3, [r2, #4]
 114 0004 013B     		subs	r3, r3, #1
 115 0006 5360     		str	r3, [r2, #4]
 116 0008 7047     		bx	lr
 117              	.L12:
 118 000a 00BF     		.align	2
 119              	.L11:
 120 000c 00000000 		.word	.LANCHOR0
 121              		.cfi_endproc
 122              	.LFE67:
 123              		.size	InterruptYP, .-InterruptYP
 124              		.section	.text.InterruptX,"ax",%progbits
 125              		.align	2
 126              		.global	InterruptX
 127              		.thumb
 128              		.thumb_func
 129              		.type	InterruptX, %function
ARM GAS  C:\Users\Klukk-TP\AppData\Local\Temp\ccRWjMht.s 			page 4


 130              	InterruptX:
 131              	.LFB68:
  43:main.c        **** CY_ISR(InterruptX)
  44:main.c        **** {countb=0;
 132              		.loc 1 44 0
 133              		.cfi_startproc
 134              		@ args = 0, pretend = 0, frame = 0
 135              		@ frame_needed = 0, uses_anonymous_args = 0
 136              		@ link register save eliminated.
 137              		.loc 1 44 0
 138 0000 0022     		movs	r2, #0
 139 0002 014B     		ldr	r3, .L14
 140 0004 5A60     		str	r2, [r3, #4]
 141 0006 7047     		bx	lr
 142              	.L15:
 143              		.align	2
 144              	.L14:
 145 0008 00000000 		.word	.LANCHOR0
 146              		.cfi_endproc
 147              	.LFE68:
 148              		.size	InterruptX, .-InterruptX
 149              		.section	.text.InterruptY,"ax",%progbits
 150              		.align	2
 151              		.global	InterruptY
 152              		.thumb
 153              		.thumb_func
 154              		.type	InterruptY, %function
 155              	InterruptY:
 156              	.LFB69:
  45:main.c        **** 
  46:main.c        **** }
  47:main.c        **** CY_ISR(InterruptY)
  48:main.c        **** {counta=0;
 157              		.loc 1 48 0
 158              		.cfi_startproc
 159              		@ args = 0, pretend = 0, frame = 0
 160              		@ frame_needed = 0, uses_anonymous_args = 0
 161              		@ link register save eliminated.
 162              		.loc 1 48 0
 163 0000 0022     		movs	r2, #0
 164 0002 014B     		ldr	r3, .L17
 165 0004 1A60     		str	r2, [r3]
 166 0006 7047     		bx	lr
 167              	.L18:
 168              		.align	2
 169              	.L17:
 170 0008 00000000 		.word	.LANCHOR0
 171              		.cfi_endproc
 172              	.LFE69:
 173              		.size	InterruptY, .-InterruptY
 174              		.section	.text.InterruptRX,"ax",%progbits
 175              		.align	2
 176              		.global	InterruptRX
 177              		.thumb
 178              		.thumb_func
 179              		.type	InterruptRX, %function
 180              	InterruptRX:
ARM GAS  C:\Users\Klukk-TP\AppData\Local\Temp\ccRWjMht.s 			page 5


 181              	.LFB63:
  28:main.c        **** i++;
 182              		.loc 1 28 0
 183              		.cfi_startproc
 184              		@ args = 0, pretend = 0, frame = 0
 185              		@ frame_needed = 0, uses_anonymous_args = 0
 186 0000 38B5     		push	{r3, r4, r5, lr}
 187              		.cfi_def_cfa_offset 16
 188              		.cfi_offset 3, -16
 189              		.cfi_offset 4, -12
 190              		.cfi_offset 5, -8
 191              		.cfi_offset 14, -4
  28:main.c        **** i++;
 192              		.loc 1 28 0
 193 0002 074C     		ldr	r4, .L22
 194 0004 A568     		ldr	r5, [r4, #8]
 195 0006 FFF7FEFF 		bl	UART_GetChar
 196              	.LVL0:
 197 000a 064B     		ldr	r3, .L22+4
 198 000c 5855     		strb	r0, [r3, r5]
  29:main.c        **** if(i>=10){i=0;x=0;}}
 199              		.loc 1 29 0
 200 000e A368     		ldr	r3, [r4, #8]
 201 0010 0133     		adds	r3, r3, #1
 202 0012 A360     		str	r3, [r4, #8]
  30:main.c        **** 
 203              		.loc 1 30 0
 204 0014 092B     		cmp	r3, #9
 205 0016 02DD     		ble	.L19
  30:main.c        **** 
 206              		.loc 1 30 0 is_stmt 0 discriminator 1
 207 0018 0022     		movs	r2, #0
 208 001a A260     		str	r2, [r4, #8]
 209 001c E260     		str	r2, [r4, #12]
 210              	.L19:
 211 001e 38BD     		pop	{r3, r4, r5, pc}
 212              	.L23:
 213              		.align	2
 214              	.L22:
 215 0020 00000000 		.word	.LANCHOR0
 216 0024 00000000 		.word	datorecibido
 217              		.cfi_endproc
 218              	.LFE63:
 219              		.size	InterruptRX, .-InterruptRX
 220              		.section	.text.UART_writeint,"ax",%progbits
 221              		.align	2
 222              		.global	UART_writeint
 223              		.thumb
 224              		.thumb_func
 225              		.type	UART_writeint, %function
 226              	UART_writeint:
 227              	.LFB70:
  49:main.c        **** }
  50:main.c        **** 
  51:main.c        **** 
  52:main.c        **** void UART_writeint(val)
  53:main.c        **** {
ARM GAS  C:\Users\Klukk-TP\AppData\Local\Temp\ccRWjMht.s 			page 6


 228              		.loc 1 53 0 is_stmt 1
 229              		.cfi_startproc
 230              		@ args = 0, pretend = 0, frame = 40
 231              		@ frame_needed = 0, uses_anonymous_args = 0
 232              	.LVL1:
 233 0000 00B5     		push	{lr}
 234              		.cfi_def_cfa_offset 4
 235              		.cfi_offset 14, -4
 236 0002 8BB0     		sub	sp, sp, #44
 237              		.cfi_def_cfa_offset 48
  54:main.c        **** char buff[33];
  55:main.c        **** 
  56:main.c        **** itoa(val, buff,  10);
 238              		.loc 1 56 0
 239 0004 0A22     		movs	r2, #10
 240 0006 01A9     		add	r1, sp, #4
 241 0008 FFF7FEFF 		bl	itoa
 242              	.LVL2:
  57:main.c        **** UART_PutString(buff);
 243              		.loc 1 57 0
 244 000c 01A8     		add	r0, sp, #4
 245 000e FFF7FEFF 		bl	UART_PutString
 246              	.LVL3:
  58:main.c        **** }
 247              		.loc 1 58 0
 248 0012 0BB0     		add	sp, sp, #44
 249              		.cfi_def_cfa_offset 4
 250              		@ sp needed
 251 0014 5DF804FB 		ldr	pc, [sp], #4
 252              		.cfi_endproc
 253              	.LFE70:
 254              		.size	UART_writeint, .-UART_writeint
 255              		.global	__aeabi_i2d
 256              		.global	__aeabi_dsub
 257              		.global	__aeabi_dmul
 258              		.global	__aeabi_dadd
 259              		.global	__aeabi_d2iz
 260              		.section	.text.main,"ax",%progbits
 261              		.align	2
 262              		.global	main
 263              		.thumb
 264              		.thumb_func
 265              		.type	main, %function
 266              	main:
 267              	.LFB71:
  59:main.c        **** 
  60:main.c        **** 
  61:main.c        **** int main(void)
  62:main.c        **** {
 268              		.loc 1 62 0
 269              		.cfi_startproc
 270              		@ Volatile: function does not return.
 271              		@ args = 0, pretend = 0, frame = 0
 272              		@ frame_needed = 0, uses_anonymous_args = 0
 273 0000 2DE98848 		push	{r3, r7, fp, lr}
 274              		.cfi_def_cfa_offset 16
 275              		.cfi_offset 3, -16
ARM GAS  C:\Users\Klukk-TP\AppData\Local\Temp\ccRWjMht.s 			page 7


 276              		.cfi_offset 7, -12
 277              		.cfi_offset 11, -8
 278              		.cfi_offset 14, -4
  63:main.c        ****     CyGlobalIntEnable; /* Enable global interrupts. */
 279              		.loc 1 63 0
 280              		.syntax unified
 281              	@ 63 "main.c" 1
 282 0004 62B6     		CPSIE   i
 283              	@ 0 "" 2
  64:main.c        ****     UART_Start();
 284              		.loc 1 64 0
 285              		.thumb
 286              		.syntax unified
 287 0006 FFF7FEFF 		bl	UART_Start
 288              	.LVL4:
  65:main.c        ****     PWM_Start();
 289              		.loc 1 65 0
 290 000a FFF7FEFF 		bl	PWM_Start
 291              	.LVL5:
  66:main.c        ****     Clock_1_Start();
 292              		.loc 1 66 0
 293 000e FFF7FEFF 		bl	Clock_1_Start
 294              	.LVL6:
  67:main.c        ****     isrRx_StartEx(InterruptRX);
 295              		.loc 1 67 0
 296 0012 BB48     		ldr	r0, .L56+48
 297 0014 FFF7FEFF 		bl	isrRx_StartEx
 298              	.LVL7:
  68:main.c        ****     isrXP_StartEx(InterruptXP);
 299              		.loc 1 68 0
 300 0018 BA48     		ldr	r0, .L56+52
 301 001a FFF7FEFF 		bl	isrXP_StartEx
 302              	.LVL8:
  69:main.c        ****     isrXL_StartEx(InterruptXL);
 303              		.loc 1 69 0
 304 001e BA48     		ldr	r0, .L56+56
 305 0020 FFF7FEFF 		bl	isrXL_StartEx
 306              	.LVL9:
  70:main.c        ****     isrYP_StartEx(InterruptYP);
 307              		.loc 1 70 0
 308 0024 B948     		ldr	r0, .L56+60
 309 0026 FFF7FEFF 		bl	isrYP_StartEx
 310              	.LVL10:
  71:main.c        ****     isrYL_StartEx(InterruptYL);
 311              		.loc 1 71 0
 312 002a B948     		ldr	r0, .L56+64
 313 002c FFF7FEFF 		bl	isrYL_StartEx
 314              	.LVL11:
  72:main.c        ****     isrX_StartEx(InterruptX);
 315              		.loc 1 72 0
 316 0030 B848     		ldr	r0, .L56+68
 317 0032 FFF7FEFF 		bl	isrX_StartEx
 318              	.LVL12:
  73:main.c        ****     isrY_StartEx(InterruptY);
 319              		.loc 1 73 0
 320 0036 B848     		ldr	r0, .L56+72
 321 0038 FFF7FEFF 		bl	isrY_StartEx
ARM GAS  C:\Users\Klukk-TP\AppData\Local\Temp\ccRWjMht.s 			page 8


 322              	.LVL13:
 323              	.L54:
  74:main.c        ****    
  75:main.c        ****     /* Place your initialization/startup code here (e.g. MyInst_Start()) */
  76:main.c        **** 
  77:main.c        ****     for(;;)
  78:main.c        ****     {
  79:main.c        ****      if(datorecibido[i]=='x'){i=0;x=1;}
 324              		.loc 1 79 0
 325 003c B74B     		ldr	r3, .L56+76
 326 003e 9B68     		ldr	r3, [r3, #8]
 327 0040 B74A     		ldr	r2, .L56+80
 328 0042 D35C     		ldrb	r3, [r2, r3]	@ zero_extendqisi2
 329 0044 782B     		cmp	r3, #120
 330 0046 04D1     		bne	.L27
 331              		.loc 1 79 0 is_stmt 0 discriminator 1
 332 0048 B44B     		ldr	r3, .L56+76
 333 004a 0022     		movs	r2, #0
 334 004c 9A60     		str	r2, [r3, #8]
 335 004e 0122     		movs	r2, #1
 336 0050 DA60     		str	r2, [r3, #12]
 337              	.L27:
  80:main.c        ****         MX[0]=datorecibido[2];
 338              		.loc 1 80 0 is_stmt 1
 339 0052 B34C     		ldr	r4, .L56+80
 340 0054 A378     		ldrb	r3, [r4, #2]	@ zero_extendqisi2
 341 0056 B348     		ldr	r0, .L56+84
 342 0058 0370     		strb	r3, [r0]
  81:main.c        ****         MX[1]=datorecibido[3];
 343              		.loc 1 81 0
 344 005a E378     		ldrb	r3, [r4, #3]	@ zero_extendqisi2
 345 005c 4370     		strb	r3, [r0, #1]
  82:main.c        ****         MX[2]=datorecibido[4];
 346              		.loc 1 82 0
 347 005e 2379     		ldrb	r3, [r4, #4]	@ zero_extendqisi2
 348 0060 8370     		strb	r3, [r0, #2]
  83:main.c        ****         MXV0=atoi(MX);
 349              		.loc 1 83 0
 350 0062 FFF7FEFF 		bl	atoi
 351              	.LVL14:
 352 0066 AD4B     		ldr	r3, .L56+76
 353 0068 1861     		str	r0, [r3, #16]
  84:main.c        **** 
  85:main.c        ****         if(datorecibido[1]=='-')
 354              		.loc 1 85 0
 355 006a 6378     		ldrb	r3, [r4, #1]	@ zero_extendqisi2
 356 006c 2D2B     		cmp	r3, #45
 357 006e 02D1     		bne	.L28
  86:main.c        ****         {MXV0=0-MXV0;}
 358              		.loc 1 86 0
 359 0070 4042     		negs	r0, r0
 360 0072 AA4B     		ldr	r3, .L56+76
 361 0074 1861     		str	r0, [r3, #16]
 362              	.L28:
  87:main.c        ****         else{MXV0=MXV0;}
  88:main.c        ****         
  89:main.c        ****         MY[0]=datorecibido[7];
ARM GAS  C:\Users\Klukk-TP\AppData\Local\Temp\ccRWjMht.s 			page 9


 363              		.loc 1 89 0
 364 0076 AA4C     		ldr	r4, .L56+80
 365 0078 E379     		ldrb	r3, [r4, #7]	@ zero_extendqisi2
 366 007a AB48     		ldr	r0, .L56+88
 367 007c 0370     		strb	r3, [r0]
  90:main.c        ****         MY[1]=datorecibido[8];
 368              		.loc 1 90 0
 369 007e 237A     		ldrb	r3, [r4, #8]	@ zero_extendqisi2
 370 0080 4370     		strb	r3, [r0, #1]
  91:main.c        ****         MY[2]=datorecibido[9];
 371              		.loc 1 91 0
 372 0082 637A     		ldrb	r3, [r4, #9]	@ zero_extendqisi2
 373 0084 8370     		strb	r3, [r0, #2]
  92:main.c        ****         MYV0=atoi(MY);
 374              		.loc 1 92 0
 375 0086 FFF7FEFF 		bl	atoi
 376              	.LVL15:
 377 008a A44B     		ldr	r3, .L56+76
 378 008c 5861     		str	r0, [r3, #20]
  93:main.c        ****        
  94:main.c        ****         if(datorecibido[6]=='-')
 379              		.loc 1 94 0
 380 008e A379     		ldrb	r3, [r4, #6]	@ zero_extendqisi2
 381 0090 2D2B     		cmp	r3, #45
 382 0092 02D1     		bne	.L29
  95:main.c        ****         {MYV0=0-MYV0;}
 383              		.loc 1 95 0
 384 0094 4042     		negs	r0, r0
 385 0096 A14B     		ldr	r3, .L56+76
 386 0098 5861     		str	r0, [r3, #20]
 387              	.L29:
  96:main.c        ****         else{MYV0=MYV0;}
  97:main.c        ****        
  98:main.c        ****         //////////////////////////////////////////////////////////////////////////////
  99:main.c        ****         /*Control Motor X*/
 100:main.c        ****         /////////////////////////////////////////////////////////////////////////////
 101:main.c        ****         
 102:main.c        ****         refex=MXV0;
 388              		.loc 1 102 0
 389 009a DFF880A2 		ldr	r10, .L56+76
 390 009e DAF81000 		ldr	r0, [r10, #16]
 391 00a2 FFF7FEFF 		bl	__aeabi_i2d
 392              	.LVL16:
 393 00a6 0646     		mov	r6, r0
 394 00a8 0F46     		mov	r7, r1
 395 00aa CAE90667 		strd	r6, [r10, #24]
 103:main.c        ****         sex=counta;
 396              		.loc 1 103 0
 397 00ae DAF800B0 		ldr	fp, [r10]
 398 00b2 5846     		mov	r0, fp
 399 00b4 FFF7FEFF 		bl	__aeabi_i2d
 400              	.LVL17:
 401 00b8 0446     		mov	r4, r0
 402 00ba 0D46     		mov	r5, r1
 403 00bc CAE90845 		strd	r4, [r10, #32]
 104:main.c        ****         
 105:main.c        ****         //       1.8416   -2.1619    0.4164
ARM GAS  C:\Users\Klukk-TP\AppData\Local\Temp\ccRWjMht.s 			page 10


 106:main.c        **** 
 107:main.c        ****         retex=refex-sex;
 404              		.loc 1 107 0
 405 00c0 0246     		mov	r2, r0
 406 00c2 0B46     		mov	r3, r1
 407 00c4 3046     		mov	r0, r6
 408 00c6 3946     		mov	r1, r7
 409 00c8 FFF7FEFF 		bl	__aeabi_dsub
 410              	.LVL18:
 411 00cc 8046     		mov	r8, r0
 412 00ce 8946     		mov	r9, r1
 413 00d0 CAE90A89 		strd	r8, [r10, #40]
 108:main.c        ****         retsx = retsax+1.8416*retex-2.1619*reteax+0.4164*reteaax;
 414              		.loc 1 108 0
 415 00d4 7EA3     		adr	r3, .L56
 416 00d6 D3E90023 		ldrd	r2, [r3]
 417 00da FFF7FEFF 		bl	__aeabi_dmul
 418              	.LVL19:
 419 00de DAE90C23 		ldrd	r2, [r10, #48]
 420 00e2 FFF7FEFF 		bl	__aeabi_dadd
 421              	.LVL20:
 422 00e6 0646     		mov	r6, r0
 423 00e8 0F46     		mov	r7, r1
 424 00ea 7BA3     		adr	r3, .L56+8
 425 00ec D3E90023 		ldrd	r2, [r3]
 426 00f0 DAE90E01 		ldrd	r0, [r10, #56]
 427 00f4 FFF7FEFF 		bl	__aeabi_dmul
 428              	.LVL21:
 429 00f8 0246     		mov	r2, r0
 430 00fa 0B46     		mov	r3, r1
 431 00fc 3046     		mov	r0, r6
 432 00fe 3946     		mov	r1, r7
 433 0100 FFF7FEFF 		bl	__aeabi_dsub
 434              	.LVL22:
 435 0104 0646     		mov	r6, r0
 436 0106 0F46     		mov	r7, r1
 437 0108 75A3     		adr	r3, .L56+16
 438 010a D3E90023 		ldrd	r2, [r3]
 439 010e DAE91001 		ldrd	r0, [r10, #64]
 440 0112 FFF7FEFF 		bl	__aeabi_dmul
 441              	.LVL23:
 442 0116 0246     		mov	r2, r0
 443 0118 0B46     		mov	r3, r1
 444 011a 3046     		mov	r0, r6
 445 011c 3946     		mov	r1, r7
 446 011e FFF7FEFF 		bl	__aeabi_dadd
 447              	.LVL24:
 448 0122 0646     		mov	r6, r0
 449 0124 0F46     		mov	r7, r1
 450 0126 CAE91267 		strd	r6, [r10, #72]
 109:main.c        ****         MXV=retsx;
 451              		.loc 1 109 0
 452 012a FFF7FEFF 		bl	__aeabi_d2iz
 453              	.LVL25:
 454 012e CAF85000 		str	r0, [r10, #80]
 110:main.c        ****         
 111:main.c        ****         
ARM GAS  C:\Users\Klukk-TP\AppData\Local\Temp\ccRWjMht.s 			page 11


 112:main.c        ****         seax=sex;
 455              		.loc 1 112 0
 456 0132 CAE91645 		strd	r4, [r10, #88]
 113:main.c        ****         seaax=seax;
 457              		.loc 1 113 0
 458 0136 CAE91845 		strd	r4, [r10, #96]
 114:main.c        ****         reteax=retex;
 459              		.loc 1 114 0
 460 013a CAE90E89 		strd	r8, [r10, #56]
 115:main.c        ****         reteaax=reteax;
 461              		.loc 1 115 0
 462 013e CAE91089 		strd	r8, [r10, #64]
 116:main.c        ****         retsax=retsx;
 463              		.loc 1 116 0
 464 0142 CAE90C67 		strd	r6, [r10, #48]
 117:main.c        ****         retsaax=retsax;
 465              		.loc 1 117 0
 466 0146 CAE91A67 		strd	r6, [r10, #104]
 118:main.c        ****         
 119:main.c        ****         
 120:main.c        ****         //////////////////////////////////////////////////////////////////////////////
 121:main.c        ****         /*Control Motor Y*/
 122:main.c        ****         /////////////////////////////////////////////////////////////////////////////
 123:main.c        ****         
 124:main.c        ****         refey=MYV0;
 467              		.loc 1 124 0
 468 014a DAF81400 		ldr	r0, [r10, #20]
 469 014e FFF7FEFF 		bl	__aeabi_i2d
 470              	.LVL26:
 471 0152 0646     		mov	r6, r0
 472 0154 0F46     		mov	r7, r1
 473 0156 CAE91C67 		strd	r6, [r10, #112]
 125:main.c        ****         sey=countb;
 474              		.loc 1 125 0
 475 015a DAF80400 		ldr	r0, [r10, #4]
 476 015e FFF7FEFF 		bl	__aeabi_i2d
 477              	.LVL27:
 478 0162 0446     		mov	r4, r0
 479 0164 0D46     		mov	r5, r1
 480 0166 CAE91E45 		strd	r4, [r10, #120]
 126:main.c        ****         
 127:main.c        ****         //       2.2099   -2.5943    0.4996
 128:main.c        ****         retey=refey-sey;
 481              		.loc 1 128 0
 482 016a 0246     		mov	r2, r0
 483 016c 0B46     		mov	r3, r1
 484 016e 3046     		mov	r0, r6
 485 0170 3946     		mov	r1, r7
 486 0172 FFF7FEFF 		bl	__aeabi_dsub
 487              	.LVL28:
 488 0176 0646     		mov	r6, r0
 489 0178 0F46     		mov	r7, r1
 490 017a CAE92067 		strd	r6, [r10, #128]
 129:main.c        ****         retsy = retsay+1.2099*retey-1.5943*reteay+0.4996*reteaay;
 491              		.loc 1 129 0
 492 017e 5AA3     		adr	r3, .L56+24
 493 0180 D3E90023 		ldrd	r2, [r3]
ARM GAS  C:\Users\Klukk-TP\AppData\Local\Temp\ccRWjMht.s 			page 12


 494 0184 FFF7FEFF 		bl	__aeabi_dmul
 495              	.LVL29:
 496 0188 DAE92223 		ldrd	r2, [r10, #136]
 497 018c FFF7FEFF 		bl	__aeabi_dadd
 498              	.LVL30:
 499 0190 8046     		mov	r8, r0
 500 0192 8946     		mov	r9, r1
 501 0194 56A3     		adr	r3, .L56+32
 502 0196 D3E90023 		ldrd	r2, [r3]
 503 019a DAE92401 		ldrd	r0, [r10, #144]
 504 019e FFF7FEFF 		bl	__aeabi_dmul
 505              	.LVL31:
 506 01a2 0246     		mov	r2, r0
 507 01a4 0B46     		mov	r3, r1
 508 01a6 4046     		mov	r0, r8
 509 01a8 4946     		mov	r1, r9
 510 01aa FFF7FEFF 		bl	__aeabi_dsub
 511              	.LVL32:
 512 01ae 8046     		mov	r8, r0
 513 01b0 8946     		mov	r9, r1
 514 01b2 51A3     		adr	r3, .L56+40
 515 01b4 D3E90023 		ldrd	r2, [r3]
 516 01b8 DAE92601 		ldrd	r0, [r10, #152]
 517 01bc FFF7FEFF 		bl	__aeabi_dmul
 518              	.LVL33:
 519 01c0 0246     		mov	r2, r0
 520 01c2 0B46     		mov	r3, r1
 521 01c4 4046     		mov	r0, r8
 522 01c6 4946     		mov	r1, r9
 523 01c8 FFF7FEFF 		bl	__aeabi_dadd
 524              	.LVL34:
 525 01cc 8046     		mov	r8, r0
 526 01ce 8946     		mov	r9, r1
 527 01d0 CAE92889 		strd	r8, [r10, #160]
 130:main.c        ****         MYV=retsy;
 528              		.loc 1 130 0
 529 01d4 FFF7FEFF 		bl	__aeabi_d2iz
 530              	.LVL35:
 531 01d8 CAF8A800 		str	r0, [r10, #168]
 131:main.c        ****         seay=sey;
 532              		.loc 1 131 0
 533 01dc CAE92C45 		strd	r4, [r10, #176]
 132:main.c        ****         seaay=seay;
 534              		.loc 1 132 0
 535 01e0 CAE92E45 		strd	r4, [r10, #184]
 133:main.c        ****         reteay=retey;
 536              		.loc 1 133 0
 537 01e4 CAE92467 		strd	r6, [r10, #144]
 134:main.c        ****         reteaay=reteay;
 538              		.loc 1 134 0
 539 01e8 CAE92667 		strd	r6, [r10, #152]
 135:main.c        ****         retsay=retsy;
 540              		.loc 1 135 0
 541 01ec CAE92289 		strd	r8, [r10, #136]
 136:main.c        ****         retsaay=retsay;
 542              		.loc 1 136 0
 543 01f0 CAE93089 		strd	r8, [r10, #192]
ARM GAS  C:\Users\Klukk-TP\AppData\Local\Temp\ccRWjMht.s 			page 13


 137:main.c        ****         
 138:main.c        ****     
 139:main.c        ****     
 140:main.c        ****      
 141:main.c        ****         
 142:main.c        ****   /*  if(MXV<=-255){MXV=-255;}
 143:main.c        ****     if(MYV<=-255){MYV=-255;}
 144:main.c        ****     if(MXV>=255){MXV=255;}
 145:main.c        ****     if(MYV>=255){MYV=255;}*/
 146:main.c        **** 
 147:main.c        ****  
 148:main.c        ****     
 149:main.c        ****     if(counta>0 && counta<=9){UART_PutChar('0');UART_PutChar('0');}
 544              		.loc 1 149 0
 545 01f4 0BF1FF3B 		add	fp, fp, #-1
 546 01f8 BBF1080F 		cmp	fp, #8
 547 01fc 05D8     		bhi	.L30
 548              		.loc 1 149 0 is_stmt 0 discriminator 1
 549 01fe 3020     		movs	r0, #48
 550 0200 FFF7FEFF 		bl	UART_PutChar
 551              	.LVL36:
 552 0204 3020     		movs	r0, #48
 553 0206 FFF7FEFF 		bl	UART_PutChar
 554              	.LVL37:
 555              	.L30:
 150:main.c        ****  if(counta>=10 && counta<=99){UART_PutChar('0');}
 556              		.loc 1 150 0 is_stmt 1
 557 020a 444B     		ldr	r3, .L56+76
 558 020c 1B68     		ldr	r3, [r3]
 559 020e 0A3B     		subs	r3, r3, #10
 560 0210 592B     		cmp	r3, #89
 561 0212 02D8     		bhi	.L31
 562              		.loc 1 150 0 is_stmt 0 discriminator 1
 563 0214 3020     		movs	r0, #48
 564 0216 FFF7FEFF 		bl	UART_PutChar
 565              	.LVL38:
 566              	.L31:
 151:main.c        **** if(counta>=-9 && counta<0){UART_PutChar('0');UART_PutChar('0');}
 567              		.loc 1 151 0 is_stmt 1
 568 021a 404B     		ldr	r3, .L56+76
 569 021c 1B68     		ldr	r3, [r3]
 570 021e 0933     		adds	r3, r3, #9
 571 0220 082B     		cmp	r3, #8
 572 0222 05D8     		bhi	.L32
 573              		.loc 1 151 0 is_stmt 0 discriminator 1
 574 0224 3020     		movs	r0, #48
 575 0226 FFF7FEFF 		bl	UART_PutChar
 576              	.LVL39:
 577 022a 3020     		movs	r0, #48
 578 022c FFF7FEFF 		bl	UART_PutChar
 579              	.LVL40:
 580              	.L32:
 152:main.c        ****  if(counta>=-99 && counta<=-10){UART_PutChar('0');}
 581              		.loc 1 152 0 is_stmt 1
 582 0230 3A4B     		ldr	r3, .L56+76
 583 0232 1B68     		ldr	r3, [r3]
 584 0234 6333     		adds	r3, r3, #99
ARM GAS  C:\Users\Klukk-TP\AppData\Local\Temp\ccRWjMht.s 			page 14


 585 0236 592B     		cmp	r3, #89
 586 0238 02D8     		bhi	.L33
 587              		.loc 1 152 0 is_stmt 0 discriminator 1
 588 023a 3020     		movs	r0, #48
 589 023c FFF7FEFF 		bl	UART_PutChar
 590              	.LVL41:
 591              	.L33:
 153:main.c        ****    if(counta==0){UART_PutChar('0');UART_PutChar('0');UART_PutChar('0');} else{UART_writeint(counta)
 592              		.loc 1 153 0 is_stmt 1
 593 0240 364B     		ldr	r3, .L56+76
 594 0242 1868     		ldr	r0, [r3]
 595 0244 48B9     		cbnz	r0, .L34
 596              		.loc 1 153 0 is_stmt 0 discriminator 1
 597 0246 3020     		movs	r0, #48
 598 0248 FFF7FEFF 		bl	UART_PutChar
 599              	.LVL42:
 600 024c 3020     		movs	r0, #48
 601 024e FFF7FEFF 		bl	UART_PutChar
 602              	.LVL43:
 603 0252 3020     		movs	r0, #48
 604 0254 FFF7FEFF 		bl	UART_PutChar
 605              	.LVL44:
 606 0258 01E0     		b	.L35
 607              	.L34:
 608              		.loc 1 153 0 discriminator 2
 609 025a FFF7FEFF 		bl	UART_writeint
 610              	.LVL45:
 611              	.L35:
 154:main.c        ****     
 155:main.c        ****     UART_PutChar(',');  
 612              		.loc 1 155 0 is_stmt 1
 613 025e 2C20     		movs	r0, #44
 614 0260 FFF7FEFF 		bl	UART_PutChar
 615              	.LVL46:
 156:main.c        **** 
 157:main.c        ****        if(countb>0 && countb<=9){UART_PutChar('0');UART_PutChar('0');}
 616              		.loc 1 157 0
 617 0264 2D4B     		ldr	r3, .L56+76
 618 0266 5B68     		ldr	r3, [r3, #4]
 619 0268 013B     		subs	r3, r3, #1
 620 026a 082B     		cmp	r3, #8
 621 026c 05D8     		bhi	.L36
 622              		.loc 1 157 0 is_stmt 0 discriminator 1
 623 026e 3020     		movs	r0, #48
 624 0270 FFF7FEFF 		bl	UART_PutChar
 625              	.LVL47:
 626 0274 3020     		movs	r0, #48
 627 0276 FFF7FEFF 		bl	UART_PutChar
 628              	.LVL48:
 629              	.L36:
 158:main.c        ****  if(countb>=10 && countb<=99){UART_PutChar('0');}
 630              		.loc 1 158 0 is_stmt 1
 631 027a 284B     		ldr	r3, .L56+76
 632 027c 5B68     		ldr	r3, [r3, #4]
 633 027e 0A3B     		subs	r3, r3, #10
 634 0280 592B     		cmp	r3, #89
 635 0282 02D8     		bhi	.L37
ARM GAS  C:\Users\Klukk-TP\AppData\Local\Temp\ccRWjMht.s 			page 15


 636              		.loc 1 158 0 is_stmt 0 discriminator 1
 637 0284 3020     		movs	r0, #48
 638 0286 FFF7FEFF 		bl	UART_PutChar
 639              	.LVL49:
 640              	.L37:
 159:main.c        **** if(countb>=-9 && countb<0){UART_PutChar('0');UART_PutChar('0');}
 641              		.loc 1 159 0 is_stmt 1
 642 028a 244B     		ldr	r3, .L56+76
 643 028c 5B68     		ldr	r3, [r3, #4]
 644 028e 0933     		adds	r3, r3, #9
 645 0290 082B     		cmp	r3, #8
 646 0292 05D8     		bhi	.L38
 647              		.loc 1 159 0 is_stmt 0 discriminator 1
 648 0294 3020     		movs	r0, #48
 649 0296 FFF7FEFF 		bl	UART_PutChar
 650              	.LVL50:
 651 029a 3020     		movs	r0, #48
 652 029c FFF7FEFF 		bl	UART_PutChar
 653              	.LVL51:
 654              	.L38:
 160:main.c        ****  if(countb>=-99 && countb<=-10){UART_PutChar('0');}
 655              		.loc 1 160 0 is_stmt 1
 656 02a0 1E4B     		ldr	r3, .L56+76
 657 02a2 5B68     		ldr	r3, [r3, #4]
 658 02a4 6333     		adds	r3, r3, #99
 659 02a6 592B     		cmp	r3, #89
 660 02a8 02D8     		bhi	.L39
 661              		.loc 1 160 0 is_stmt 0 discriminator 1
 662 02aa 3020     		movs	r0, #48
 663 02ac FFF7FEFF 		bl	UART_PutChar
 664              	.LVL52:
 665              	.L39:
 161:main.c        ****    if(countb==0){UART_PutChar('0');UART_PutChar('0');UART_PutChar('0');} else{UART_writeint(countb)
 666              		.loc 1 161 0 is_stmt 1
 667 02b0 1A4B     		ldr	r3, .L56+76
 668 02b2 5868     		ldr	r0, [r3, #4]
 669 02b4 D0BB     		cbnz	r0, .L40
 670              		.loc 1 161 0 is_stmt 0 discriminator 1
 671 02b6 3020     		movs	r0, #48
 672 02b8 FFF7FEFF 		bl	UART_PutChar
 673              	.LVL53:
 674 02bc 3020     		movs	r0, #48
 675 02be FFF7FEFF 		bl	UART_PutChar
 676              	.LVL54:
 677 02c2 3020     		movs	r0, #48
 678 02c4 FFF7FEFF 		bl	UART_PutChar
 679              	.LVL55:
 680 02c8 32E0     		b	.L41
 681              	.L57:
 682 02ca 00BFAFF3 		.align	3
 682      0080
 683              	.L56:
 684 02d0 8104C58F 		.word	-1882913663
 685 02d4 3177FD3F 		.word	1073575729
 686 02d8 7AC7293A 		.word	975816570
 687 02dc 924B0140 		.word	1073826706
 688 02e0 4A7B832F 		.word	797145930
ARM GAS  C:\Users\Klukk-TP\AppData\Local\Temp\ccRWjMht.s 			page 16


 689 02e4 4CA6DA3F 		.word	1071294028
 690 02e8 EBE2361A 		.word	439804651
 691 02ec C05BF33F 		.word	1072913344
 692 02f0 6E3480B7 		.word	-1216334738
 693 02f4 4082F93F 		.word	1073316416
 694 02f8 EF384547 		.word	1195718895
 695 02fc 72F9DF3F 		.word	1071642994
 696 0300 00000000 		.word	InterruptRX
 697 0304 00000000 		.word	InterruptXP
 698 0308 00000000 		.word	InterruptXL
 699 030c 00000000 		.word	InterruptYP
 700 0310 00000000 		.word	InterruptYL
 701 0314 00000000 		.word	InterruptX
 702 0318 00000000 		.word	InterruptY
 703 031c 00000000 		.word	.LANCHOR0
 704 0320 00000000 		.word	datorecibido
 705 0324 00000000 		.word	MX
 706 0328 00000000 		.word	MY
 707              	.L40:
 708              		.loc 1 161 0 discriminator 2
 709 032c FFF7FEFF 		bl	UART_writeint
 710              	.LVL56:
 711              	.L41:
 162:main.c        ****     
 163:main.c        ****     
 164:main.c        ****     UART_PutChar(','); 
 712              		.loc 1 164 0 is_stmt 1
 713 0330 2C20     		movs	r0, #44
 714 0332 FFF7FEFF 		bl	UART_PutChar
 715              	.LVL57:
 165:main.c        ****  if(MXV>0 && MXV<=9){UART_PutChar('0');UART_PutChar('0');}
 716              		.loc 1 165 0
 717 0336 4B4B     		ldr	r3, .L58
 718 0338 1B6D     		ldr	r3, [r3, #80]
 719 033a 013B     		subs	r3, r3, #1
 720 033c 082B     		cmp	r3, #8
 721 033e 05D8     		bhi	.L42
 722              		.loc 1 165 0 is_stmt 0 discriminator 1
 723 0340 3020     		movs	r0, #48
 724 0342 FFF7FEFF 		bl	UART_PutChar
 725              	.LVL58:
 726 0346 3020     		movs	r0, #48
 727 0348 FFF7FEFF 		bl	UART_PutChar
 728              	.LVL59:
 729              	.L42:
 166:main.c        ****  if(MXV>=10 && MXV<=99){UART_PutChar('0');}
 730              		.loc 1 166 0 is_stmt 1
 731 034c 454B     		ldr	r3, .L58
 732 034e 1B6D     		ldr	r3, [r3, #80]
 733 0350 0A3B     		subs	r3, r3, #10
 734 0352 592B     		cmp	r3, #89
 735 0354 02D8     		bhi	.L43
 736              		.loc 1 166 0 is_stmt 0 discriminator 1
 737 0356 3020     		movs	r0, #48
 738 0358 FFF7FEFF 		bl	UART_PutChar
 739              	.LVL60:
 740              	.L43:
ARM GAS  C:\Users\Klukk-TP\AppData\Local\Temp\ccRWjMht.s 			page 17


 167:main.c        ****    if(MXV==0){UART_PutChar('0');UART_PutChar('0');UART_PutChar('0');} else{UART_writeint(MXV);}
 741              		.loc 1 167 0 is_stmt 1
 742 035c 414B     		ldr	r3, .L58
 743 035e 186D     		ldr	r0, [r3, #80]
 744 0360 48B9     		cbnz	r0, .L44
 745              		.loc 1 167 0 is_stmt 0 discriminator 1
 746 0362 3020     		movs	r0, #48
 747 0364 FFF7FEFF 		bl	UART_PutChar
 748              	.LVL61:
 749 0368 3020     		movs	r0, #48
 750 036a FFF7FEFF 		bl	UART_PutChar
 751              	.LVL62:
 752 036e 3020     		movs	r0, #48
 753 0370 FFF7FEFF 		bl	UART_PutChar
 754              	.LVL63:
 755 0374 01E0     		b	.L45
 756              	.L44:
 757              		.loc 1 167 0 discriminator 2
 758 0376 FFF7FEFF 		bl	UART_writeint
 759              	.LVL64:
 760              	.L45:
 168:main.c        ****     UART_PutChar(','); 
 761              		.loc 1 168 0 is_stmt 1
 762 037a 2C20     		movs	r0, #44
 763 037c FFF7FEFF 		bl	UART_PutChar
 764              	.LVL65:
 169:main.c        **** if(MYV>0 && MYV<=9){UART_PutChar('0');UART_PutChar('0');}
 765              		.loc 1 169 0
 766 0380 384B     		ldr	r3, .L58
 767 0382 D3F8A830 		ldr	r3, [r3, #168]
 768 0386 013B     		subs	r3, r3, #1
 769 0388 082B     		cmp	r3, #8
 770 038a 05D8     		bhi	.L46
 771              		.loc 1 169 0 is_stmt 0 discriminator 1
 772 038c 3020     		movs	r0, #48
 773 038e FFF7FEFF 		bl	UART_PutChar
 774              	.LVL66:
 775 0392 3020     		movs	r0, #48
 776 0394 FFF7FEFF 		bl	UART_PutChar
 777              	.LVL67:
 778              	.L46:
 170:main.c        ****  if(MYV>=10 && MYV<=99){UART_PutChar('0');}
 779              		.loc 1 170 0 is_stmt 1
 780 0398 324B     		ldr	r3, .L58
 781 039a D3F8A830 		ldr	r3, [r3, #168]
 782 039e 0A3B     		subs	r3, r3, #10
 783 03a0 592B     		cmp	r3, #89
 784 03a2 02D8     		bhi	.L47
 785              		.loc 1 170 0 is_stmt 0 discriminator 1
 786 03a4 3020     		movs	r0, #48
 787 03a6 FFF7FEFF 		bl	UART_PutChar
 788              	.LVL68:
 789              	.L47:
 171:main.c        ****    if(MYV==0){UART_PutChar('0');UART_PutChar('0');UART_PutChar('0');} else{UART_writeint(MYV);}
 790              		.loc 1 171 0 is_stmt 1
 791 03aa 2E4B     		ldr	r3, .L58
 792 03ac D3F8A800 		ldr	r0, [r3, #168]
ARM GAS  C:\Users\Klukk-TP\AppData\Local\Temp\ccRWjMht.s 			page 18


 793 03b0 48B9     		cbnz	r0, .L48
 794              		.loc 1 171 0 is_stmt 0 discriminator 1
 795 03b2 3020     		movs	r0, #48
 796 03b4 FFF7FEFF 		bl	UART_PutChar
 797              	.LVL69:
 798 03b8 3020     		movs	r0, #48
 799 03ba FFF7FEFF 		bl	UART_PutChar
 800              	.LVL70:
 801 03be 3020     		movs	r0, #48
 802 03c0 FFF7FEFF 		bl	UART_PutChar
 803              	.LVL71:
 804 03c4 01E0     		b	.L49
 805              	.L48:
 806              		.loc 1 171 0 discriminator 2
 807 03c6 FFF7FEFF 		bl	UART_writeint
 808              	.LVL72:
 809              	.L49:
 172:main.c        ****   UART_PutChar(';');
 810              		.loc 1 172 0 is_stmt 1
 811 03ca 3B20     		movs	r0, #59
 812 03cc FFF7FEFF 		bl	UART_PutChar
 813              	.LVL73:
 173:main.c        **** 
 174:main.c        ****     UART_PutChar('\n');
 814              		.loc 1 174 0
 815 03d0 0A20     		movs	r0, #10
 816 03d2 FFF7FEFF 		bl	UART_PutChar
 817              	.LVL74:
 175:main.c        ****     UART_PutChar(0x0D);
 818              		.loc 1 175 0
 819 03d6 0D20     		movs	r0, #13
 820 03d8 FFF7FEFF 		bl	UART_PutChar
 821              	.LVL75:
 176:main.c        ****     
 177:main.c        ****     
 178:main.c        ****     
 179:main.c        ****     
 180:main.c        ****     
 181:main.c        ****     PWM_WriteCompare1(abs(MXV)); 
 822              		.loc 1 181 0
 823 03dc 214C     		ldr	r4, .L58
 824 03de 206D     		ldr	r0, [r4, #80]
 825 03e0 0028     		cmp	r0, #0
 826 03e2 B8BF     		it	lt
 827 03e4 4042     		rsblt	r0, r0, #0
 828 03e6 C0B2     		uxtb	r0, r0
 829 03e8 FFF7FEFF 		bl	PWM_WriteCompare1
 830              	.LVL76:
 182:main.c        ****     PWM_WriteCompare2(abs(MYV)); 
 831              		.loc 1 182 0
 832 03ec D4F8A800 		ldr	r0, [r4, #168]
 833 03f0 0028     		cmp	r0, #0
 834 03f2 B8BF     		it	lt
 835 03f4 4042     		rsblt	r0, r0, #0
 836 03f6 C0B2     		uxtb	r0, r0
 837 03f8 FFF7FEFF 		bl	PWM_WriteCompare2
 838              	.LVL77:
ARM GAS  C:\Users\Klukk-TP\AppData\Local\Temp\ccRWjMht.s 			page 19


 183:main.c        ****     
 184:main.c        ****     if(MYV<0){
 839              		.loc 1 184 0
 840 03fc D4F8A830 		ldr	r3, [r4, #168]
 841 0400 002B     		cmp	r3, #0
 842 0402 06DA     		bge	.L50
 185:main.c        ****     A1_Write(1);  
 843              		.loc 1 185 0
 844 0404 0120     		movs	r0, #1
 845 0406 FFF7FEFF 		bl	A1_Write
 846              	.LVL78:
 186:main.c        ****     B1_Write(0); 
 847              		.loc 1 186 0
 848 040a 0020     		movs	r0, #0
 849 040c FFF7FEFF 		bl	B1_Write
 850              	.LVL79:
 851 0410 05E0     		b	.L51
 852              	.L50:
 187:main.c        ****     }else{
 188:main.c        ****     A1_Write(0); 
 853              		.loc 1 188 0
 854 0412 0020     		movs	r0, #0
 855 0414 FFF7FEFF 		bl	A1_Write
 856              	.LVL80:
 189:main.c        ****     B1_Write(1);}
 857              		.loc 1 189 0
 858 0418 0120     		movs	r0, #1
 859 041a FFF7FEFF 		bl	B1_Write
 860              	.LVL81:
 861              	.L51:
 190:main.c        ****     
 191:main.c        ****    
 192:main.c        ****     if(MXV<0){
 862              		.loc 1 192 0
 863 041e 114B     		ldr	r3, .L58
 864 0420 1B6D     		ldr	r3, [r3, #80]
 865 0422 002B     		cmp	r3, #0
 866 0424 06DA     		bge	.L52
 193:main.c        ****     A2_Write(1); 
 867              		.loc 1 193 0
 868 0426 0120     		movs	r0, #1
 869 0428 FFF7FEFF 		bl	A2_Write
 870              	.LVL82:
 194:main.c        ****     B2_Write(0); 
 871              		.loc 1 194 0
 872 042c 0020     		movs	r0, #0
 873 042e FFF7FEFF 		bl	B2_Write
 874              	.LVL83:
 875 0432 05E0     		b	.L53
 876              	.L52:
 195:main.c        ****     }else{
 196:main.c        ****     A2_Write(0); 
 877              		.loc 1 196 0
 878 0434 0020     		movs	r0, #0
 879 0436 FFF7FEFF 		bl	A2_Write
 880              	.LVL84:
 197:main.c        ****     B2_Write(1);}
ARM GAS  C:\Users\Klukk-TP\AppData\Local\Temp\ccRWjMht.s 			page 20


 881              		.loc 1 197 0
 882 043a 0120     		movs	r0, #1
 883 043c FFF7FEFF 		bl	B2_Write
 884              	.LVL85:
 885              	.L53:
 198:main.c        ****     
 199:main.c        ****     
 200:main.c        ****     PWM_WriteCompare1(abs(MXV)); 
 886              		.loc 1 200 0
 887 0440 084C     		ldr	r4, .L58
 888 0442 206D     		ldr	r0, [r4, #80]
 889 0444 0028     		cmp	r0, #0
 890 0446 B8BF     		it	lt
 891 0448 4042     		rsblt	r0, r0, #0
 892 044a C0B2     		uxtb	r0, r0
 893 044c FFF7FEFF 		bl	PWM_WriteCompare1
 894              	.LVL86:
 201:main.c        ****     PWM_WriteCompare2(abs(MYV));
 895              		.loc 1 201 0
 896 0450 D4F8A800 		ldr	r0, [r4, #168]
 897 0454 0028     		cmp	r0, #0
 898 0456 B8BF     		it	lt
 899 0458 4042     		rsblt	r0, r0, #0
 900 045a C0B2     		uxtb	r0, r0
 901 045c FFF7FEFF 		bl	PWM_WriteCompare2
 902              	.LVL87:
 202:main.c        ****     
 203:main.c        ****     
 204:main.c        ****     /*if(datorecibido[6]=='-'){
 205:main.c        ****     A1_Write(1);  
 206:main.c        ****     B1_Write(0); 
 207:main.c        ****     }else{
 208:main.c        ****     A1_Write(0); 
 209:main.c        ****     B1_Write(1);}
 210:main.c        ****     
 211:main.c        ****    
 212:main.c        ****     if(datorecibido[1]=='-'){
 213:main.c        ****     A2_Write(1); 
 214:main.c        ****     B2_Write(0); 
 215:main.c        ****     }else{
 216:main.c        ****     A2_Write(0); 
 217:main.c        ****     B2_Write(1);}*/
 218:main.c        ****     }
 903              		.loc 1 218 0
 904 0460 ECE5     		b	.L54
 905              	.L59:
 906 0462 00BF     		.align	2
 907              	.L58:
 908 0464 00000000 		.word	.LANCHOR0
 909              		.cfi_endproc
 910              	.LFE71:
 911              		.size	main, .-main
 912              		.comm	DY,1,1
 913              		.comm	DX,1,1
 914              		.comm	MY,2,4
 915              		.comm	MX,2,4
 916              		.comm	datoenviado,20,4
ARM GAS  C:\Users\Klukk-TP\AppData\Local\Temp\ccRWjMht.s 			page 21


 917              		.global	reteaay
 918              		.global	reteay
 919              		.global	retey
 920              		.global	retsaay
 921              		.global	retsay
 922              		.global	retsy
 923              		.global	refeaay
 924              		.global	refeay
 925              		.global	refey
 926              		.global	refsaay
 927              		.global	refsay
 928              		.global	refsy
 929              		.global	seaay
 930              		.global	seay
 931              		.global	sey
 932              		.global	ssaay
 933              		.global	ssay
 934              		.global	ssy
 935              		.global	reteaax
 936              		.global	reteax
 937              		.global	retex
 938              		.global	retsaax
 939              		.global	retsax
 940              		.global	retsx
 941              		.global	refeaax
 942              		.global	refeax
 943              		.global	refex
 944              		.global	refsaax
 945              		.global	refsax
 946              		.global	refsx
 947              		.global	seaax
 948              		.global	seax
 949              		.global	sex
 950              		.global	ssaax
 951              		.global	ssax
 952              		.global	ssx
 953              		.comm	xxx,4,4
 954              		.comm	rf,4,4
 955              		.comm	raa,4,4
 956              		.comm	rfa,4,4
 957              		.comm	rfaa,4,4
 958              		.global	KIX
 959              		.global	KPX
 960              		.comm	rety,4,4
 961              		.comm	retx,4,4
 962              		.global	MYV00
 963              		.global	MXV00
 964              		.global	MYV0
 965              		.global	MXV0
 966              		.global	MYV
 967              		.global	MXV
 968              		.global	x
 969              		.global	i
 970              		.global	pwmy
 971              		.global	pwmx
 972              		.global	countb
 973              		.global	counta
ARM GAS  C:\Users\Klukk-TP\AppData\Local\Temp\ccRWjMht.s 			page 22


 974              		.comm	datorecibido,10,4
 975              		.bss
 976              		.align	3
 977              		.set	.LANCHOR0,. + 0
 978              		.type	counta, %object
 979              		.size	counta, 4
 980              	counta:
 981 0000 00000000 		.space	4
 982              		.type	countb, %object
 983              		.size	countb, 4
 984              	countb:
 985 0004 00000000 		.space	4
 986              		.type	i, %object
 987              		.size	i, 4
 988              	i:
 989 0008 00000000 		.space	4
 990              		.type	x, %object
 991              		.size	x, 4
 992              	x:
 993 000c 00000000 		.space	4
 994              		.type	MXV0, %object
 995              		.size	MXV0, 4
 996              	MXV0:
 997 0010 00000000 		.space	4
 998              		.type	MYV0, %object
 999              		.size	MYV0, 4
 1000              	MYV0:
 1001 0014 00000000 		.space	4
 1002              		.type	refex, %object
 1003              		.size	refex, 8
 1004              	refex:
 1005 0018 00000000 		.space	8
 1005      00000000 
 1006              		.type	sex, %object
 1007              		.size	sex, 8
 1008              	sex:
 1009 0020 00000000 		.space	8
 1009      00000000 
 1010              		.type	retex, %object
 1011              		.size	retex, 8
 1012              	retex:
 1013 0028 00000000 		.space	8
 1013      00000000 
 1014              		.type	retsax, %object
 1015              		.size	retsax, 8
 1016              	retsax:
 1017 0030 00000000 		.space	8
 1017      00000000 
 1018              		.type	reteax, %object
 1019              		.size	reteax, 8
 1020              	reteax:
 1021 0038 00000000 		.space	8
 1021      00000000 
 1022              		.type	reteaax, %object
 1023              		.size	reteaax, 8
 1024              	reteaax:
 1025 0040 00000000 		.space	8
ARM GAS  C:\Users\Klukk-TP\AppData\Local\Temp\ccRWjMht.s 			page 23


 1025      00000000 
 1026              		.type	retsx, %object
 1027              		.size	retsx, 8
 1028              	retsx:
 1029 0048 00000000 		.space	8
 1029      00000000 
 1030              		.type	MXV, %object
 1031              		.size	MXV, 4
 1032              	MXV:
 1033 0050 00000000 		.space	4
 1034 0054 00000000 		.space	4
 1035              		.type	seax, %object
 1036              		.size	seax, 8
 1037              	seax:
 1038 0058 00000000 		.space	8
 1038      00000000 
 1039              		.type	seaax, %object
 1040              		.size	seaax, 8
 1041              	seaax:
 1042 0060 00000000 		.space	8
 1042      00000000 
 1043              		.type	retsaax, %object
 1044              		.size	retsaax, 8
 1045              	retsaax:
 1046 0068 00000000 		.space	8
 1046      00000000 
 1047              		.type	refey, %object
 1048              		.size	refey, 8
 1049              	refey:
 1050 0070 00000000 		.space	8
 1050      00000000 
 1051              		.type	sey, %object
 1052              		.size	sey, 8
 1053              	sey:
 1054 0078 00000000 		.space	8
 1054      00000000 
 1055              		.type	retey, %object
 1056              		.size	retey, 8
 1057              	retey:
 1058 0080 00000000 		.space	8
 1058      00000000 
 1059              		.type	retsay, %object
 1060              		.size	retsay, 8
 1061              	retsay:
 1062 0088 00000000 		.space	8
 1062      00000000 
 1063              		.type	reteay, %object
 1064              		.size	reteay, 8
 1065              	reteay:
 1066 0090 00000000 		.space	8
 1066      00000000 
 1067              		.type	reteaay, %object
 1068              		.size	reteaay, 8
 1069              	reteaay:
 1070 0098 00000000 		.space	8
 1070      00000000 
 1071              		.type	retsy, %object
ARM GAS  C:\Users\Klukk-TP\AppData\Local\Temp\ccRWjMht.s 			page 24


 1072              		.size	retsy, 8
 1073              	retsy:
 1074 00a0 00000000 		.space	8
 1074      00000000 
 1075              		.type	MYV, %object
 1076              		.size	MYV, 4
 1077              	MYV:
 1078 00a8 00000000 		.space	4
 1079 00ac 00000000 		.space	4
 1080              		.type	seay, %object
 1081              		.size	seay, 8
 1082              	seay:
 1083 00b0 00000000 		.space	8
 1083      00000000 
 1084              		.type	seaay, %object
 1085              		.size	seaay, 8
 1086              	seaay:
 1087 00b8 00000000 		.space	8
 1087      00000000 
 1088              		.type	retsaay, %object
 1089              		.size	retsaay, 8
 1090              	retsaay:
 1091 00c0 00000000 		.space	8
 1091      00000000 
 1092              		.type	refeaay, %object
 1093              		.size	refeaay, 8
 1094              	refeaay:
 1095 00c8 00000000 		.space	8
 1095      00000000 
 1096              		.type	refeay, %object
 1097              		.size	refeay, 8
 1098              	refeay:
 1099 00d0 00000000 		.space	8
 1099      00000000 
 1100              		.type	refsaay, %object
 1101              		.size	refsaay, 8
 1102              	refsaay:
 1103 00d8 00000000 		.space	8
 1103      00000000 
 1104              		.type	refsay, %object
 1105              		.size	refsay, 8
 1106              	refsay:
 1107 00e0 00000000 		.space	8
 1107      00000000 
 1108              		.type	refsy, %object
 1109              		.size	refsy, 8
 1110              	refsy:
 1111 00e8 00000000 		.space	8
 1111      00000000 
 1112              		.type	ssaay, %object
 1113              		.size	ssaay, 8
 1114              	ssaay:
 1115 00f0 00000000 		.space	8
 1115      00000000 
 1116              		.type	ssay, %object
 1117              		.size	ssay, 8
 1118              	ssay:
ARM GAS  C:\Users\Klukk-TP\AppData\Local\Temp\ccRWjMht.s 			page 25


 1119 00f8 00000000 		.space	8
 1119      00000000 
 1120              		.type	ssy, %object
 1121              		.size	ssy, 8
 1122              	ssy:
 1123 0100 00000000 		.space	8
 1123      00000000 
 1124              		.type	refeaax, %object
 1125              		.size	refeaax, 8
 1126              	refeaax:
 1127 0108 00000000 		.space	8
 1127      00000000 
 1128              		.type	refeax, %object
 1129              		.size	refeax, 8
 1130              	refeax:
 1131 0110 00000000 		.space	8
 1131      00000000 
 1132              		.type	refsaax, %object
 1133              		.size	refsaax, 8
 1134              	refsaax:
 1135 0118 00000000 		.space	8
 1135      00000000 
 1136              		.type	refsax, %object
 1137              		.size	refsax, 8
 1138              	refsax:
 1139 0120 00000000 		.space	8
 1139      00000000 
 1140              		.type	refsx, %object
 1141              		.size	refsx, 8
 1142              	refsx:
 1143 0128 00000000 		.space	8
 1143      00000000 
 1144              		.type	ssaax, %object
 1145              		.size	ssaax, 8
 1146              	ssaax:
 1147 0130 00000000 		.space	8
 1147      00000000 
 1148              		.type	ssax, %object
 1149              		.size	ssax, 8
 1150              	ssax:
 1151 0138 00000000 		.space	8
 1151      00000000 
 1152              		.type	ssx, %object
 1153              		.size	ssx, 8
 1154              	ssx:
 1155 0140 00000000 		.space	8
 1155      00000000 
 1156              		.type	KIX, %object
 1157              		.size	KIX, 4
 1158              	KIX:
 1159 0148 00000000 		.space	4
 1160              		.type	KPX, %object
 1161              		.size	KPX, 4
 1162              	KPX:
 1163 014c 00000000 		.space	4
 1164              		.type	MYV00, %object
 1165              		.size	MYV00, 4
ARM GAS  C:\Users\Klukk-TP\AppData\Local\Temp\ccRWjMht.s 			page 26


 1166              	MYV00:
 1167 0150 00000000 		.space	4
 1168              		.type	MXV00, %object
 1169              		.size	MXV00, 4
 1170              	MXV00:
 1171 0154 00000000 		.space	4
 1172              		.type	pwmy, %object
 1173              		.size	pwmy, 4
 1174              	pwmy:
 1175 0158 00000000 		.space	4
 1176              		.type	pwmx, %object
 1177              		.size	pwmx, 4
 1178              	pwmx:
 1179 015c 00000000 		.space	4
 1180              		.text
 1181              	.Letext0:
 1182              		.file 2 "c:\\program files (x86)\\cypress\\psoc creator\\4.2\\psoc creator\\import\\gnu\\arm\\5.4.
 1183              		.file 3 "c:\\program files (x86)\\cypress\\psoc creator\\4.2\\psoc creator\\import\\gnu\\arm\\5.4.
 1184              		.file 4 "Generated_Source\\PSoC5/core_cm3.h"
 1185              		.file 5 "Generated_Source\\PSoC5/UART.h"
 1186              		.file 6 "c:\\program files (x86)\\cypress\\psoc creator\\4.2\\psoc creator\\import\\gnu\\arm\\5.4.
 1187              		.file 7 "Generated_Source\\PSoC5/PWM.h"
 1188              		.file 8 "Generated_Source\\PSoC5/Clock_1.h"
 1189              		.file 9 "Generated_Source\\PSoC5/isrRx.h"
 1190              		.file 10 "Generated_Source\\PSoC5/isrXP.h"
 1191              		.file 11 "Generated_Source\\PSoC5/isrXL.h"
 1192              		.file 12 "Generated_Source\\PSoC5/isrYP.h"
 1193              		.file 13 "Generated_Source\\PSoC5/isrYL.h"
 1194              		.file 14 "Generated_Source\\PSoC5/isrX.h"
 1195              		.file 15 "Generated_Source\\PSoC5/isrY.h"
 1196              		.file 16 "Generated_Source\\PSoC5/A1.h"
 1197              		.file 17 "Generated_Source\\PSoC5/B1.h"
 1198              		.file 18 "Generated_Source\\PSoC5/A2.h"
 1199              		.file 19 "Generated_Source\\PSoC5/B2.h"